(dp0
S'cookies'
p1
(dp2
S'webwx_data_ticket'
p3
S'gSeRqRVyNVW9QP5mgOOvbQcf'
p4
sS'wxuin'
p5
S'556236533'
p6
sS'webwxuvid'
p7
S'2f2a609eda4eb2ae5a82739712a6bb82152edf6cb21cb105263d5b937fbe99b1567f8b0768c0d9f830256462985026e8'
p8
sS'webwx_auth_ticket'
p9
S'CIsBEPL/tv0FGoAB427wlU8W7wdQc4Xk/EqMthheTjGDiF3a+pX7OJgLUTJmn+/U8Ki2PFu1hOiy3u2tq+iNla4kkGdkI5/fniUl8hR6BahmmbIyarRPDw3shUhVFgNyKTDztSxMjUHB055Lhg8zN57p2O56/9AeZqjLVE1dAqNH9/lXPbOmuZGQEWI='
p10
sS'wxloadtime'
p11
S'1504512497'
p12
sS'wxsid'
p13
S'WbkInZAArsKO9IMq'
p14
sS'mm_lang'
p15
S'zh_CN'
p16
ssS'version'
p17
S'1.2.32'
p18
sS'storage'
p19
(dp20
S'userName'
p21
V@ca493aee6ddde5ede677f4d4590da84022e10e3a7275c375f45cf6eb1efc40ed
p22
sS'lastInputUserName'
p23
NsS'memberList'
p24
(lp25
(dp26
S'UserName'
p27
V@ca493aee6ddde5ede677f4d4590da84022e10e3a7275c375f45cf6eb1efc40ed
p28
sS'City'
p29
S''
p30
sS'DisplayName'
p31
g30
sS'UniFriend'
p32
I0
sS'MemberList'
p33
(lp34
sS'PYQuanPin'
p35
Vxiaoxiaofan
p36
sS'RemarkPYInitial'
p37
V
p38
sS'Sex'
p39
I0
sS'AppAccountFlag'
p40
I0
sS'VerifyFlag'
p41
I0
sS'Province'
p42
g30
sS'KeyWord'
p43
g30
sS'RemarkName'
p44
g38
sS'PYInitial'
p45
VXXF
p46
sVIsOwner
p47
I0
sS'ChatRoomId'
p48
I0
sS'HideInputBarFlag'
p49
I0
sVHeadImgFlag
p50
I1
sS'EncryChatRoomId'
p51
g30
sS'AttrStatus'
p52
I233573
sVWebWxPluginSwitch
p53
I0
sS'SnsFlag'
p54
I1
sS'MemberCount'
p55
I0
sS'OwnerUin'
p56
I0
sS'Alias'
p57
g30
sS'Signature'
p58
g38
sS'ContactFlag'
p59
I3
sS'NickName'
p60
V\u5c0f\u5c0f\u8303
p61
sS'RemarkPYQuanPin'
p62
g38
sS'HeadImgUrl'
p63
V/cgi-bin/mmwebwx-bin/webwxgeticon?seq=641683621&username=@ca493aee6ddde5ede677f4d4590da84022e10e3a7275c375f45cf6eb1efc40ed&skey=@crypt_9759bc92_210ca4d9f23ff272ba846efda0b3bd5a
p64
sS'Uin'
p65
I556236533
sS'StarFriend'
p66
I0
sS'Statues'
p67
I0
sa(dp68
VUserName
p69
V@036f32ea32ee62b78e4dbc2f59a2eec687ce6dd984c157148c5eccda40134966
p70
sVCity
p71
V\u6d66\u4e1c\u65b0\u533a
p72
sVDisplayName
p73
g38
sVUniFriend
p74
I0
sVMemberList
p75
(lp76
sVPYQuanPin
p77
Vxiatiandefeng
p78
sVRemarkPYInitial
p79
g38
sVUin
p80
I0
sVAppAccountFlag
p81
I0
sVVerifyFlag
p82
I0
sVProvince
p83
V\u4e0a\u6d77
p84
sVKeyWord
p85
g38
sVRemarkName
p86
g38
sVPYInitial
p87
VXTDF
p88
sVChatRoomId
p89
I0
sVIsOwner
p90
I0
sVHideInputBarFlag
p91
I0
sVEncryChatRoomId
p92
g38
sVAttrStatus
p93
I176229
sVSnsFlag
p94
I17
sVMemberCount
p95
I0
sVOwnerUin
p96
I0
sVAlias
p97
g38
sVSignature
p98
g38
sVContactFlag
p99
I3
sVNickName
p100
V\u590f\u5929\u7684\u98ce
p101
sVRemarkPYQuanPin
p102
g38
sVHeadImgUrl
p103
V/cgi-bin/mmwebwx-bin/webwxgeticon?seq=641681175&username=@036f32ea32ee62b78e4dbc2f59a2eec687ce6dd984c157148c5eccda40134966&skey=@crypt_9759bc92_210ca4d9f23ff272ba846efda0b3bd5a
p104
sVSex
p105
I1
sVStarFriend
p106
I0
sVStatues
p107
I0
sa(dp108
VUserName
p109
V@fcc74189520b284e860f791ba92a167cf41da1a30f2d875c05cee4910032f9a2
p110
sVCity
p111
g38
sVDisplayName
p112
g38
sVUniFriend
p113
I0
sVMemberList
p114
(lp115
sVPYQuanPin
p116
Vmiaozhenli
p117
sVRemarkPYInitial
p118
g38
sVUin
p119
I0
sVAppAccountFlag
p120
I0
sVVerifyFlag
p121
I0
sVProvince
p122
g38
sVKeyWord
p123
g38
sVRemarkName
p124
g38
sVPYInitial
p125
VMZL
p126
sVChatRoomId
p127
I0
sVIsOwner
p128
I0
sVHideInputBarFlag
p129
I0
sVEncryChatRoomId
p130
g38
sVAttrStatus
p131
I4133
sVSnsFlag
p132
I1
sVMemberCount
p133
I0
sVOwnerUin
p134
I0
sVAlias
p135
g38
sVSignature
p136
g38
sVContactFlag
p137
I3
sVNickName
p138
V\u82d7\u632f\u4e3d
p139
sVRemarkPYQuanPin
p140
g38
sVHeadImgUrl
p141
V/cgi-bin/mmwebwx-bin/webwxgeticon?seq=641681907&username=@fcc74189520b284e860f791ba92a167cf41da1a30f2d875c05cee4910032f9a2&skey=@crypt_9759bc92_210ca4d9f23ff272ba846efda0b3bd5a
p142
sVSex
p143
I0
sVStarFriend
p144
I0
sVStatues
p145
I0
sa(dp146
VUserName
p147
V@ee28e9500dfe02f7a2c8701e259e27dfb70f037940a24f040ac4ba76e34e2d13
p148
sVCity
p149
g38
sVDisplayName
p150
g38
sVUniFriend
p151
I0
sVMemberList
p152
(lp153
sVPYQuanPin
p154
Vlaogao
p155
sVRemarkPYInitial
p156
g38
sVUin
p157
I0
sVAppAccountFlag
p158
I0
sVVerifyFlag
p159
I0
sVProvince
p160
V\u4e0a\u6d77
p161
sVKeyWord
p162
g38
sVRemarkName
p163
g38
sVPYInitial
p164
VLG
p165
sVChatRoomId
p166
I0
sVIsOwner
p167
I0
sVHideInputBarFlag
p168
I0
sVEncryChatRoomId
p169
g38
sVAttrStatus
p170
I4133
sVSnsFlag
p171
I1
sVMemberCount
p172
I0
sVOwnerUin
p173
I0
sVAlias
p174
g38
sVSignature
p175
V\u848b\u534e\u73b2
p176
sVContactFlag
p177
I3
sVNickName
p178
V\u8001\u9ad8
p179
sVRemarkPYQuanPin
p180
g38
sVHeadImgUrl
p181
V/cgi-bin/mmwebwx-bin/webwxgeticon?seq=641681237&username=@ee28e9500dfe02f7a2c8701e259e27dfb70f037940a24f040ac4ba76e34e2d13&skey=@crypt_9759bc92_210ca4d9f23ff272ba846efda0b3bd5a
p182
sVSex
p183
I2
sVStarFriend
p184
I0
sVStatues
p185
I0
sa(dp186
VUserName
p187
V@5fe9822738c6972fa50533778cb9ddcec208550e6508d946a6a8192ab9f1a831
p188
sVCity
p189
V\u6d66\u4e1c\u65b0\u533a
p190
sVDisplayName
p191
g38
sVUniFriend
p192
I0
sVMemberList
p193
(lp194
sVPYQuanPin
p195
Vmingyue
p196
sVRemarkPYInitial
p197
g38
sVUin
p198
I0
sVAppAccountFlag
p199
I0
sVVerifyFlag
p200
I0
sVProvince
p201
V\u4e0a\u6d77
p202
sVKeyWord
p203
g38
sVRemarkName
p204
g38
sVPYInitial
p205
VMY
p206
sVChatRoomId
p207
I0
sVIsOwner
p208
I0
sVHideInputBarFlag
p209
I0
sVEncryChatRoomId
p210
g38
sVAttrStatus
p211
I33653117
sVSnsFlag
p212
I1
sVMemberCount
p213
I0
sVOwnerUin
p214
I0
sVAlias
p215
g38
sVSignature
p216
g38
sVContactFlag
p217
I3
sVNickName
p218
V\u660e\u6708
p219
sVRemarkPYQuanPin
p220
g38
sVHeadImgUrl
p221
V/cgi-bin/mmwebwx-bin/webwxgeticon?seq=641683218&username=@5fe9822738c6972fa50533778cb9ddcec208550e6508d946a6a8192ab9f1a831&skey=@crypt_9759bc92_210ca4d9f23ff272ba846efda0b3bd5a
p222
sVSex
p223
I1
sVStarFriend
p224
I0
sVStatues
p225
I0
sa(dp226
VUserName
p227
V@d3d22a927a936500932e67010b29fb37e61064b9d898a7b1f993624489872ebe
p228
sVCity
p229
V\u5357\u901a
p230
sVDisplayName
p231
g38
sVUniFriend
p232
I0
sVMemberList
p233
(lp234
sVPYQuanPin
p235
V15962956494meifengbunianhei
p236
sVRemarkPYInitial
p237
VZB
p238
sVUin
p239
I0
sVAppAccountFlag
p240
I0
sVVerifyFlag
p241
I0
sVProvince
p242
V\u6c5f\u82cf
p243
sVKeyWord
p244
g38
sVRemarkName
p245
V\u662d\u7238
p246
sVPYInitial
p247
V15962956494MFBNH
p248
sVChatRoomId
p249
I0
sVIsOwner
p250
I0
sVHideInputBarFlag
p251
I0
sVEncryChatRoomId
p252
g38
sVAttrStatus
p253
I4133
sVSnsFlag
p254
I1
sVMemberCount
p255
I0
sVOwnerUin
p256
I0
sVAlias
p257
g38
sVSignature
p258
V15962956494\u817e\u8fbe\u4e13\u4e1a\u4fdd\u6d01\u7f8e\u7f1d
p259
sVContactFlag
p260
I65539
sVNickName
p261
V15962956494\uff08\u7f8e\u7f1d\uff09\u4e0d\u7c98\u9ed1
p262
sVRemarkPYQuanPin
p263
Vzhaoba
p264
sVHeadImgUrl
p265
V/cgi-bin/mmwebwx-bin/webwxgeticon?seq=641680892&username=@d3d22a927a936500932e67010b29fb37e61064b9d898a7b1f993624489872ebe&skey=@crypt_9759bc92_210ca4d9f23ff272ba846efda0b3bd5a
p266
sVSex
p267
I0
sVStarFriend
p268
I0
sVStatues
p269
I0
sa(dp270
VUserName
p271
V@071db4011d191ab28ccdcecffbf69b1eeb21e04cbc1bca0f06943d2b11356273
p272
sVCity
p273
V\u6d66\u4e1c\u65b0\u533a
p274
sVDisplayName
p275
g38
sVUniFriend
p276
I0
sVMemberList
p277
(lp278
sVPYQuanPin
p279
Vfenglingdingchaozhuangshisheji
p280
sVRemarkPYInitial
p281
VFLCWDC
p282
sVUin
p283
I0
sVAppAccountFlag
p284
I0
sVVerifyFlag
p285
I0
sVProvince
p286
V\u4e0a\u6d77
p287
sVKeyWord
p288
g38
sVRemarkName
p289
V\u98ce\u94c3\uff0c\u8d22\u52a1\u9f0e\u8d85
p290
sVPYInitial
p291
VFLDCZSSJ
p292
sVChatRoomId
p293
I0
sVIsOwner
p294
I0
sVHideInputBarFlag
p295
I0
sVEncryChatRoomId
p296
g38
sVAttrStatus
p297
I69669
sVSnsFlag
p298
I49
sVMemberCount
p299
I0
sVOwnerUin
p300
I0
sVAlias
p301
g38
sVSignature
p302
V\u6b23\u8d4f\u81ea\u6211!
p303
sVContactFlag
p304
I65795
sVNickName
p305
V\u98ce\u94c3-\u9f0e\u8d85\u88c5\u9970\u8bbe\u8ba1
p306
sVRemarkPYQuanPin
p307
Vfenglingcaiwudingchao
p308
sVHeadImgUrl
p309
V/cgi-bin/mmwebwx-bin/webwxgeticon?seq=641683348&username=@071db4011d191ab28ccdcecffbf69b1eeb21e04cbc1bca0f06943d2b11356273&skey=@crypt_9759bc92_210ca4d9f23ff272ba846efda0b3bd5a
p310
sVSex
p311
I2
sVStarFriend
p312
I0
sVStatues
p313
I0
sa(dp314
VUserName
p315
V@d38e574ea165be2b8aef3ddf2417923cfda73ed2b3b98fce7a3df73d4f070235
p316
sVCity
p317
V\u82cf\u5dde
p318
sVDisplayName
p319
g38
sVUniFriend
p320
I0
sVMemberList
p321
(lp322
sVPYQuanPin
p323
Vwendao
p324
sVRemarkPYInitial
p325
VLXX
p326
sVUin
p327
I0
sVAppAccountFlag
p328
I0
sVVerifyFlag
p329
I0
sVProvince
p330
V\u6c5f\u82cf
p331
sVKeyWord
p332
g38
sVRemarkName
p333
V\u5218\u6653\u946b
p334
sVPYInitial
p335
VWD
p336
sVChatRoomId
p337
I0
sVIsOwner
p338
I0
sVHideInputBarFlag
p339
I0
sVEncryChatRoomId
p340
g38
sVAttrStatus
p341
I102437
sVSnsFlag
p342
I17
sVMemberCount
p343
I0
sVOwnerUin
p344
I0
sVAlias
p345
g38
sVSignature
p346
V\u4ece\u5934\u518d\u6765
p347
sVContactFlag
p348
I3
sVNickName
p349
V\u6587\u5200
p350
sVRemarkPYQuanPin
p351
Vliuxiaoxin
p352
sVHeadImgUrl
p353
V/cgi-bin/mmwebwx-bin/webwxgeticon?seq=641683562&username=@d38e574ea165be2b8aef3ddf2417923cfda73ed2b3b98fce7a3df73d4f070235&skey=@crypt_9759bc92_210ca4d9f23ff272ba846efda0b3bd5a
p354
sVSex
p355
I1
sVStarFriend
p356
I0
sVStatues
p357
I0
sa(dp358
VUserName
p359
V@9cadf7db7d54ba8303f4a93d75c29cc57f277d3d9130f4bf7e5eb20cfebb3782
p360
sVCity
p361
V\u5f90\u6c47
p362
sVDisplayName
p363
g38
sVUniFriend
p364
I0
sVMemberList
p365
(lp366
sVPYQuanPin
p367
V?
p368
sVRemarkPYInitial
p369
V?DCXF
p370
sVUin
p371
I0
sVAppAccountFlag
p372
I0
sVVerifyFlag
p373
I0
sVProvince
p374
V\u4e0a\u6d77
p375
sVKeyWord
p376
g38
sVRemarkName
p377
V\U0001f506\u9f0e\u8d85\u5c0f\u65b9
p378
sVPYInitial
p379
g368
sVChatRoomId
p380
I0
sVIsOwner
p381
I0
sVHideInputBarFlag
p382
I0
sVEncryChatRoomId
p383
g38
sVAttrStatus
p384
I102501
sVSnsFlag
p385
I17
sVMemberCount
p386
I0
sVOwnerUin
p387
I0
sVAlias
p388
g38
sVSignature
p389
V\u94b1\u96be\u6323\uff0c\u5c4e\u96be\u5403\u3002
p390
sVContactFlag
p391
I3
sVNickName
p392
V\U0001f506
p393
sVRemarkPYQuanPin
p394
V?dingchaoxiaofang
p395
sVHeadImgUrl
p396
V/cgi-bin/mmwebwx-bin/webwxgeticon?seq=641682854&username=@9cadf7db7d54ba8303f4a93d75c29cc57f277d3d9130f4bf7e5eb20cfebb3782&skey=@crypt_9759bc92_210ca4d9f23ff272ba846efda0b3bd5a
p397
sVSex
p398
I1
sVStarFriend
p399
I0
sVStatues
p400
I0
sa(dp401
VUserName
p402
V@46ce8ead3fbdd89ba481ccce7306d7ea137c0bfcc9aa39b95785a67ef64008a0
p403
sVCity
p404
V\u6d66\u4e1c\u65b0\u533a
p405
sVDisplayName
p406
g38
sVUniFriend
p407
I0
sVMemberList
p408
(lp409
sVPYQuanPin
p410
Vth
p411
sVRemarkPYInitial
p412
g38
sVUin
p413
I0
sVAppAccountFlag
p414
I0
sVVerifyFlag
p415
I0
sVProvince
p416
V\u4e0a\u6d77
p417
sVKeyWord
p418
g38
sVRemarkName
p419
g38
sVPYInitial
p420
VTH
p421
sVChatRoomId
p422
I0
sVIsOwner
p423
I0
sVHideInputBarFlag
p424
I0
sVEncryChatRoomId
p425
g38
sVAttrStatus
p426
I33657277
sVSnsFlag
p427
I17
sVMemberCount
p428
I0
sVOwnerUin
p429
I0
sVAlias
p430
g38
sVSignature
p431
g38
sVContactFlag
p432
I3
sVNickName
p433
Vth
p434
sVRemarkPYQuanPin
p435
g38
sVHeadImgUrl
p436
V/cgi-bin/mmwebwx-bin/webwxgeticon?seq=641683780&username=@46ce8ead3fbdd89ba481ccce7306d7ea137c0bfcc9aa39b95785a67ef64008a0&skey=@crypt_9759bc92_210ca4d9f23ff272ba846efda0b3bd5a
p437
sVSex
p438
I2
sVStarFriend
p439
I0
sVStatues
p440
I0
sasS'chatroomList'
p441
(lp442
(dp443
VUserName
p444
V@@6353c6e3fa5ff2ec3f420179a36b68ecf0ad4f554936ea27386c09b74e99bfd6
p445
sVCity
p446
g38
sVDisplayName
p447
g38
sVUniFriend
p448
I0
sS'self'
p449
(dp450
g27
g22
sg29
g30
sg31
g30
sg32
I0
sg56
I0
sg33
(lp451
sg35
g38
sg37
g38
sg65
I556236533
sg40
I0
sg41
I0
sg42
g30
sg43
g30
sg44
g38
sg45
g38
sg48
I0
sg49
I0
sg50
I1
sg51
g30
sg52
I0
sg54
I1
sg55
I0
sg53
I0
sg57
g30
sg58
g38
sg59
I0
sg60
V\u5c0f\u5c0f\u8303
p452
sg62
g38
sg63
V/cgi-bin/mmwebwx-bin/webwxgeticon?seq=873910503&username=@ca493aee6ddde5ede677f4d4590da84022e10e3a7275c375f45cf6eb1efc40ed&skey=@crypt_9759bc92_210ca4d9f23ff272ba846efda0b3bd5a
p453
sg39
I0
sg66
I0
sg67
I0
ssVMemberList
p454
(lp455
sVPYQuanPin
p456
Vhaha
p457
sVRemarkPYInitial
p458
g38
sVSex
p459
I0
sVAppAccountFlag
p460
I0
sVVerifyFlag
p461
I0
sVProvince
p462
g38
sVKeyWord
p463
g38
sVRemarkName
p464
g38
sVPYInitial
p465
VHH
p466
sVIsOwner
p467
I1
sVChatRoomId
p468
I0
sVHideInputBarFlag
p469
I0
sVEncryChatRoomId
p470
g38
sVAttrStatus
p471
I0
sVSnsFlag
p472
I0
sVMemberCount
p473
I3
sVOwnerUin
p474
I0
sVAlias
p475
g38
sVSignature
p476
g38
sVContactFlag
p477
I3
sVNickName
p478
V\u54c8\u54c8
p479
sVRemarkPYQuanPin
p480
g38
sVHeadImgUrl
p481
V/cgi-bin/mmwebwx-bin/webwxgetheadimg?seq=641683384&username=@@6353c6e3fa5ff2ec3f420179a36b68ecf0ad4f554936ea27386c09b74e99bfd6&skey=@crypt_9759bc92_210ca4d9f23ff272ba846efda0b3bd5a
p482
sVUin
p483
I0
sVStarFriend
p484
I0
sVStatues
p485
I0
sS'isAdmin'
p486
NsasS'nickName'
p487
g452
sS'mpList'
p488
(lp489
(dp490
VUserName
p491
V@be9c381a9ecf01bbed135c9a17a306b9
p492
sVCity
p493
V\u6df1\u5733
p494
sVDisplayName
p495
g38
sVUniFriend
p496
I0
sVMemberList
p497
(lp498
sVPYQuanPin
p499
Vtengxunyouhuanquanzhongxin
p500
sVRemarkPYInitial
p501
g38
sVUin
p502
I0
sVAppAccountFlag
p503
I0
sVVerifyFlag
p504
I24
sVProvince
p505
V\u5e7f\u4e1c
p506
sVKeyWord
p507
Vgh_
p508
sVRemarkName
p509
g38
sVPYInitial
p510
VTXYHAQZX
p511
sVChatRoomId
p512
I0
sVIsOwner
p513
I0
sVHideInputBarFlag
p514
I0
sVEncryChatRoomId
p515
g38
sVAttrStatus
p516
I0
sVSnsFlag
p517
I0
sVMemberCount
p518
I0
sVOwnerUin
p519
I0
sVAlias
p520
g38
sVSignature
p521
V\u817e\u8baf\u6e38\u620f\u5b89\u5168\u4e2d\u5fc3\u5b98\u65b9\u5fae\u4fe1\u670d\u52a1\u53f7
p522
sVContactFlag
p523
I3
sVNickName
p524
V\u817e\u8baf\u6e38\u620f\u5b89\u5168\u4e2d\u5fc3
p525
sVRemarkPYQuanPin
p526
g38
sVHeadImgUrl
p527
V/cgi-bin/mmwebwx-bin/webwxgeticon?seq=641680903&username=@be9c381a9ecf01bbed135c9a17a306b9&skey=@crypt_9759bc92_210ca4d9f23ff272ba846efda0b3bd5a
p528
sVSex
p529
I0
sVStarFriend
p530
I0
sVStatues
p531
I0
sa(dp532
VUserName
p533
V@5b40feaa26f8923dbd080db70f3ad862
p534
sVCity
p535
V\u6df1\u5733
p536
sVDisplayName
p537
g38
sVUniFriend
p538
I0
sVMemberList
p539
(lp540
sVPYQuanPin
p541
Vtengxunchongzhi
p542
sVRemarkPYInitial
p543
g38
sVUin
p544
I0
sVAppAccountFlag
p545
I0
sVVerifyFlag
p546
I24
sVProvince
p547
V\u5e7f\u4e1c
p548
sVKeyWord
p549
Vgh_
p550
sVRemarkName
p551
g38
sVPYInitial
p552
VTXCZ
p553
sVChatRoomId
p554
I0
sVIsOwner
p555
I0
sVHideInputBarFlag
p556
I0
sVEncryChatRoomId
p557
g38
sVAttrStatus
p558
I0
sVSnsFlag
p559
I0
sVMemberCount
p560
I0
sVOwnerUin
p561
I0
sVAlias
p562
g38
sVSignature
p563
V\u5145\u503cQ\u5e01/\u5305\u6708\u670d\u52a1\u5f00\u901a/\u6e38\u620f\u70b9\u5238\u5145\u503c\uff1a\u652f\u6301\u8d22\u4ed8\u901a\u3001\u94f6\u884c\u5361\u5feb\u6377\u652f\u4ed8\u3001QQ\u5361\u3001\u624b\u673a\u5145\u503c\u5361\u3001\u5fae\u4fe1\u652f\u4ed8\u7b49\u591a\u4e2a\u6e20\u9053\uff0c\u968f\u65f6\u968f\u5730\u6ee1\u8db3\u60a8\u7684\u5145\u503c\u9700\u6c42\u3002
p564
sVContactFlag
p565
I3
sVNickName
p566
V\u817e\u8baf\u5145\u503c
p567
sVRemarkPYQuanPin
p568
g38
sVHeadImgUrl
p569
V/cgi-bin/mmwebwx-bin/webwxgeticon?seq=641682999&username=@5b40feaa26f8923dbd080db70f3ad862&skey=@crypt_9759bc92_210ca4d9f23ff272ba846efda0b3bd5a
p570
sVSex
p571
I0
sVStarFriend
p572
I0
sVStatues
p573
I0
sassS'loginInfo'
p574
(dp575
S'SyncKey'
p576
(dp577
VCount
p578
I4
sVList
p579
(lp580
(dp581
VVal
p582
I641684146
sVKey
p583
I1
sa(dp584
VVal
p585
I641684186
sVKey
p586
I2
sa(dp587
VVal
p588
I641683780
sVKey
p589
I3
sa(dp590
VVal
p591
I1504486981
sVKey
p592
I1000
sassS'syncUrl'
p593
S'https://webpush.wx2.qq.com/cgi-bin/mmwebwx-bin'
p594
sS'skey'
p595
V@crypt_9759bc92_210ca4d9f23ff272ba846efda0b3bd5a
p596
sS'wxuin'
p597
V556236533
p598
sS'synckey'
p599
S'1_641684146|2_641684186|3_641683780|1000_1504486981'
p600
sS'url'
p601
Vhttps://wx2.qq.com/cgi-bin/mmwebwx-bin
p602
sS'pass_ticket'
p603
Vzo1Ui4xqb5TsHTI47p96lyxk6GpS2h4DKVWeK3CQOOlA0efMwycicQdCBy2aeOaE
p604
sS'wxsid'
p605
VWbkInZAArsKO9IMq
p606
sS'InviteStartCount'
p607
I40
sS'deviceid'
p608
S'e457905282466638'
p609
sS'fileUrl'
p610
S'https://file.wx2.qq.com/cgi-bin/mmwebwx-bin'
p611
sS'BaseRequest'
p612
(dp613
g65
g598
sS'Skey'
p614
g596
sS'DeviceID'
p615
g604
sS'Sid'
p616
g606
ssS'User'
p617
g26
ss.