((iwxpy.utils.puid_map
TwoWayDict
p0
(dp1
S'_reversed'
p2
(dp3
sS'data'
p4
(dp5
sb(iwxpy.utils.puid_map
TwoWayDict
p6
(dp7
g2
(dp8
sg4
(dp9
sb(iwxpy.utils.puid_map
TwoWayDict
p10
(dp11
g2
(dp12
sg4
(dp13
sb(iwxpy.utils.puid_map
TwoWayDict
p14
(dp15
g2
(dp16
sg4
(dp17
sbtp18
.