(dp0
S'cookies'
p1
(dp2
S'wxloadtime'
p3
S'1501144536'
p4
sS'webwx_data_ticket'
p5
S'gScOaA5NHC8HmaHS9qBCi1v3'
p6
sS'wxuin'
p7
S'556236533'
p8
sS'login_frequency'
p9
S'2'
p10
sS'MM_WX_NOTIFY_STATE'
p11
S'1'
p12
sS'MM_WX_SOUND_STATE'
p13
g12
sS'webwx_auth_ticket'
p14
S'CIsBEPr61rMLGoABF8/tYhloAT120KlyiChmMW1RwrS2GmwBSj3K5wG/rQ6pUWmCWmeb7g/ROx1f4woqkWhU4Hq9XzarXIG8CUNxvpZx0WMA5Lvih4FTWWJvttu9Fd9ekrrP3Njfep7rpnhALyx1ZYUOt6n4ruGgKAsHHKWNYr4kzk5GWL+HcWTI/Ys='
p15
sS'last_wxuin'
p16
S'556236533'
p17
sS'webwxuvid'
p18
S'6721bd9a080a159b52d5d97044bdb0a4349e268c1502af1d0f4bab95215e61c34743ecadb9a2b2986bf06acab887f045'
p19
sS'wxpluginkey'
p20
S'1500892206'
p21
sS'wxsid'
p22
S'4XsI48CRL7S8xpj+'
p23
sS'mm_lang'
p24
S'zh_CN'
p25
ssS'version'
p26
S'1.2.32'
p27
sS'storage'
p28
(dp29
S'userName'
p30
V@ebde54f1b329f68b1f5edab2d1a3c3491f26eaef391771078265b5f33e5531d3
p31
sS'lastInputUserName'
p32
NsS'memberList'
p33
(lp34
(dp35
S'UserName'
p36
V@ebde54f1b329f68b1f5edab2d1a3c3491f26eaef391771078265b5f33e5531d3
p37
sS'City'
p38
S''
p39
sS'DisplayName'
p40
g39
sS'UniFriend'
p41
I0
sS'MemberList'
p42
(lp43
sS'PYQuanPin'
p44
Vxiaoxiaofan
p45
sS'RemarkPYInitial'
p46
V
p47
sS'Sex'
p48
I0
sS'AppAccountFlag'
p49
I0
sS'VerifyFlag'
p50
I0
sS'Province'
p51
g39
sS'KeyWord'
p52
g39
sS'RemarkName'
p53
g47
sS'PYInitial'
p54
VXXF
p55
sVIsOwner
p56
I0
sS'ChatRoomId'
p57
I0
sS'HideInputBarFlag'
p58
I0
sVHeadImgFlag
p59
I1
sS'EncryChatRoomId'
p60
g39
sS'AttrStatus'
p61
I102501
sVWebWxPluginSwitch
p62
I0
sS'SnsFlag'
p63
I1
sS'MemberCount'
p64
I0
sS'OwnerUin'
p65
I0
sS'Alias'
p66
g39
sS'Signature'
p67
g47
sS'ContactFlag'
p68
I3
sS'NickName'
p69
V\u5c0f\u5c0f\u8303
p70
sS'RemarkPYQuanPin'
p71
g47
sS'HeadImgUrl'
p72
V/cgi-bin/mmwebwx-bin/webwxgeticon?seq=641683621&username=@ebde54f1b329f68b1f5edab2d1a3c3491f26eaef391771078265b5f33e5531d3&skey=@crypt_9759bc92_abe91e2482bbff2ff9d68a77ce685bc0
p73
sS'Uin'
p74
I556236533
sS'StarFriend'
p75
I0
sS'Statues'
p76
I0
sa(dp77
VUserName
p78
V@e033def253744c48e7ad10956d31d501e9ea48c6df47f8dee80cb216529393ae
p79
sVCity
p80
g47
sVDisplayName
p81
g47
sVUniFriend
p82
I0
sVMemberList
p83
(lp84
sVPYQuanPin
p85
VATAEYANG
p86
sVRemarkPYInitial
p87
g47
sVUin
p88
I0
sVAppAccountFlag
p89
I0
sVVerifyFlag
p90
I0
sVProvince
p91
g47
sVKeyWord
p92
g47
sVRemarkName
p93
g47
sVPYInitial
p94
VATAEYANG
p95
sVChatRoomId
p96
I0
sVIsOwner
p97
I0
sVHideInputBarFlag
p98
I0
sVEncryChatRoomId
p99
g47
sVAttrStatus
p100
I4133
sVSnsFlag
p101
I1
sVMemberCount
p102
I0
sVOwnerUin
p103
I0
sVAlias
p104
g47
sVSignature
p105
g47
sVContactFlag
p106
I3
sVNickName
p107
VA.TAEYANG@
p108
sVRemarkPYQuanPin
p109
g47
sVHeadImgUrl
p110
V/cgi-bin/mmwebwx-bin/webwxgeticon?seq=641683671&username=@e033def253744c48e7ad10956d31d501e9ea48c6df47f8dee80cb216529393ae&skey=@crypt_9759bc92_abe91e2482bbff2ff9d68a77ce685bc0
p111
sVSex
p112
I2
sVStarFriend
p113
I0
sVStatues
p114
I0
sa(dp115
VUserName
p116
V@83bdc8cc158f23fd30b1fece77bb5518065c13903002d969abaa0dd51f44d479
p117
sVCity
p118
V\u6d66\u4e1c\u65b0\u533a
p119
sVDisplayName
p120
g47
sVUniFriend
p121
I0
sVMemberList
p122
(lp123
sVPYQuanPin
p124
Vxiatiandefeng
p125
sVRemarkPYInitial
p126
g47
sVUin
p127
I0
sVAppAccountFlag
p128
I0
sVVerifyFlag
p129
I0
sVProvince
p130
V\u4e0a\u6d77
p131
sVKeyWord
p132
g47
sVRemarkName
p133
g47
sVPYInitial
p134
VXTDF
p135
sVChatRoomId
p136
I0
sVIsOwner
p137
I0
sVHideInputBarFlag
p138
I0
sVEncryChatRoomId
p139
g47
sVAttrStatus
p140
I176229
sVSnsFlag
p141
I17
sVMemberCount
p142
I0
sVOwnerUin
p143
I0
sVAlias
p144
g47
sVSignature
p145
g47
sVContactFlag
p146
I3
sVNickName
p147
V\u590f\u5929\u7684\u98ce
p148
sVRemarkPYQuanPin
p149
g47
sVHeadImgUrl
p150
V/cgi-bin/mmwebwx-bin/webwxgeticon?seq=641681175&username=@83bdc8cc158f23fd30b1fece77bb5518065c13903002d969abaa0dd51f44d479&skey=@crypt_9759bc92_abe91e2482bbff2ff9d68a77ce685bc0
p151
sVSex
p152
I1
sVStarFriend
p153
I0
sVStatues
p154
I0
sa(dp155
VUserName
p156
V@c56b0d38281e5f7f2186892c03c0f3a91c68db939cf6cd2d5aff6a58cd5d7b7a
p157
sVCity
p158
g47
sVDisplayName
p159
g47
sVUniFriend
p160
I0
sVMemberList
p161
(lp162
sVPYQuanPin
p163
Vmiaozhenli
p164
sVRemarkPYInitial
p165
g47
sVUin
p166
I0
sVAppAccountFlag
p167
I0
sVVerifyFlag
p168
I0
sVProvince
p169
g47
sVKeyWord
p170
g47
sVRemarkName
p171
g47
sVPYInitial
p172
VMZL
p173
sVChatRoomId
p174
I0
sVIsOwner
p175
I0
sVHideInputBarFlag
p176
I0
sVEncryChatRoomId
p177
g47
sVAttrStatus
p178
I4133
sVSnsFlag
p179
I1
sVMemberCount
p180
I0
sVOwnerUin
p181
I0
sVAlias
p182
g47
sVSignature
p183
g47
sVContactFlag
p184
I3
sVNickName
p185
V\u82d7\u632f\u4e3d
p186
sVRemarkPYQuanPin
p187
g47
sVHeadImgUrl
p188
V/cgi-bin/mmwebwx-bin/webwxgeticon?seq=641681907&username=@c56b0d38281e5f7f2186892c03c0f3a91c68db939cf6cd2d5aff6a58cd5d7b7a&skey=@crypt_9759bc92_abe91e2482bbff2ff9d68a77ce685bc0
p189
sVSex
p190
I0
sVStarFriend
p191
I0
sVStatues
p192
I0
sa(dp193
VUserName
p194
V@8623d7435c40f4dee9a06035ea24a3757f6e63b1c09877e4998873d00aacdb38
p195
sVCity
p196
V\u5f90\u6c47
p197
sVDisplayName
p198
g47
sVUniFriend
p199
I0
sVMemberList
p200
(lp201
sVPYQuanPin
p202
V?
p203
sVRemarkPYInitial
p204
V?DCXF
p205
sVUin
p206
I0
sVAppAccountFlag
p207
I0
sVVerifyFlag
p208
I0
sVProvince
p209
V\u4e0a\u6d77
p210
sVKeyWord
p211
g47
sVRemarkName
p212
V\U0001f506\u9f0e\u8d85\u5c0f\u65b9
p213
sVPYInitial
p214
g203
sVChatRoomId
p215
I0
sVIsOwner
p216
I0
sVHideInputBarFlag
p217
I0
sVEncryChatRoomId
p218
g47
sVAttrStatus
p219
I102501
sVSnsFlag
p220
I17
sVMemberCount
p221
I0
sVOwnerUin
p222
I0
sVAlias
p223
g47
sVSignature
p224
g47
sVContactFlag
p225
I3
sVNickName
p226
V\U0001f506
p227
sVRemarkPYQuanPin
p228
V?dingchaoxiaofang
p229
sVHeadImgUrl
p230
V/cgi-bin/mmwebwx-bin/webwxgeticon?seq=641682854&username=@8623d7435c40f4dee9a06035ea24a3757f6e63b1c09877e4998873d00aacdb38&skey=@crypt_9759bc92_abe91e2482bbff2ff9d68a77ce685bc0
p231
sVSex
p232
I1
sVStarFriend
p233
I0
sVStatues
p234
I0
sa(dp235
VUserName
p236
V@d9d18cea3563af738f0186136294c91336864d2ebea5354b376977657db30555
p237
sVCity
p238
g47
sVDisplayName
p239
g47
sVUniFriend
p240
I0
sVMemberList
p241
(lp242
sVPYQuanPin
p243
Vlaogao
p244
sVRemarkPYInitial
p245
g47
sVUin
p246
I0
sVAppAccountFlag
p247
I0
sVVerifyFlag
p248
I0
sVProvince
p249
V\u4e0a\u6d77
p250
sVKeyWord
p251
g47
sVRemarkName
p252
g47
sVPYInitial
p253
VLG
p254
sVChatRoomId
p255
I0
sVIsOwner
p256
I0
sVHideInputBarFlag
p257
I0
sVEncryChatRoomId
p258
g47
sVAttrStatus
p259
I4133
sVSnsFlag
p260
I1
sVMemberCount
p261
I0
sVOwnerUin
p262
I0
sVAlias
p263
g47
sVSignature
p264
V\u848b\u534e\u73b2
p265
sVContactFlag
p266
I3
sVNickName
p267
V\u8001\u9ad8
p268
sVRemarkPYQuanPin
p269
g47
sVHeadImgUrl
p270
V/cgi-bin/mmwebwx-bin/webwxgeticon?seq=641681237&username=@d9d18cea3563af738f0186136294c91336864d2ebea5354b376977657db30555&skey=@crypt_9759bc92_abe91e2482bbff2ff9d68a77ce685bc0
p271
sVSex
p272
I2
sVStarFriend
p273
I0
sVStatues
p274
I0
sa(dp275
VUserName
p276
V@3a0b7edd6f939e5b337afa47c31613be6f1420f173f6b935702e79ee5ab0a2ea
p277
sVCity
p278
V\u6d66\u4e1c\u65b0\u533a
p279
sVDisplayName
p280
g47
sVUniFriend
p281
I0
sVMemberList
p282
(lp283
sVPYQuanPin
p284
Vmingyue
p285
sVRemarkPYInitial
p286
g47
sVUin
p287
I0
sVAppAccountFlag
p288
I0
sVVerifyFlag
p289
I0
sVProvince
p290
V\u4e0a\u6d77
p291
sVKeyWord
p292
g47
sVRemarkName
p293
g47
sVPYInitial
p294
VMY
p295
sVChatRoomId
p296
I0
sVIsOwner
p297
I0
sVHideInputBarFlag
p298
I0
sVEncryChatRoomId
p299
g47
sVAttrStatus
p300
I33653117
sVSnsFlag
p301
I1
sVMemberCount
p302
I0
sVOwnerUin
p303
I0
sVAlias
p304
g47
sVSignature
p305
g47
sVContactFlag
p306
I3
sVNickName
p307
V\u660e\u6708
p308
sVRemarkPYQuanPin
p309
g47
sVHeadImgUrl
p310
V/cgi-bin/mmwebwx-bin/webwxgeticon?seq=641683218&username=@3a0b7edd6f939e5b337afa47c31613be6f1420f173f6b935702e79ee5ab0a2ea&skey=@crypt_9759bc92_abe91e2482bbff2ff9d68a77ce685bc0
p311
sVSex
p312
I1
sVStarFriend
p313
I0
sVStatues
p314
I0
sa(dp315
VUserName
p316
V@e9d7067fed621b529cd3302bfb98a4e0dfa21fd645c0678ca2dd4d24df10f480
p317
sVCity
p318
V\u6d66\u4e1c\u65b0\u533a
p319
sVDisplayName
p320
g47
sVUniFriend
p321
I0
sVMemberList
p322
(lp323
sVPYQuanPin
p324
Vth
p325
sVRemarkPYInitial
p326
g47
sVUin
p327
I0
sVAppAccountFlag
p328
I0
sVVerifyFlag
p329
I0
sVProvince
p330
V\u4e0a\u6d77
p331
sVKeyWord
p332
g47
sVRemarkName
p333
g47
sVPYInitial
p334
VTH
p335
sVChatRoomId
p336
I0
sVIsOwner
p337
I0
sVHideInputBarFlag
p338
I0
sVEncryChatRoomId
p339
g47
sVAttrStatus
p340
I33657277
sVSnsFlag
p341
I17
sVMemberCount
p342
I0
sVOwnerUin
p343
I0
sVAlias
p344
g47
sVSignature
p345
g47
sVContactFlag
p346
I3
sVNickName
p347
Vth
p348
sVRemarkPYQuanPin
p349
g47
sVHeadImgUrl
p350
V/cgi-bin/mmwebwx-bin/webwxgeticon?seq=641683342&username=@e9d7067fed621b529cd3302bfb98a4e0dfa21fd645c0678ca2dd4d24df10f480&skey=@crypt_9759bc92_abe91e2482bbff2ff9d68a77ce685bc0
p351
sVSex
p352
I2
sVStarFriend
p353
I0
sVStatues
p354
I0
sa(dp355
VUserName
p356
V@692a4df26feecba0d9ea0800ec15384eeb6f87edd0322b828a7b7df9769569c1
p357
sVCity
p358
V\u5357\u901a
p359
sVDisplayName
p360
g47
sVUniFriend
p361
I0
sVMemberList
p362
(lp363
sVPYQuanPin
p364
V15962956494meifengbunianhei
p365
sVRemarkPYInitial
p366
VZB
p367
sVUin
p368
I0
sVAppAccountFlag
p369
I0
sVVerifyFlag
p370
I0
sVProvince
p371
V\u6c5f\u82cf
p372
sVKeyWord
p373
g47
sVRemarkName
p374
V\u662d\u7238
p375
sVPYInitial
p376
V15962956494MFBNH
p377
sVChatRoomId
p378
I0
sVIsOwner
p379
I0
sVHideInputBarFlag
p380
I0
sVEncryChatRoomId
p381
g47
sVAttrStatus
p382
I4133
sVSnsFlag
p383
I1
sVMemberCount
p384
I0
sVOwnerUin
p385
I0
sVAlias
p386
g47
sVSignature
p387
V15962956494\u817e\u8fbe\u4e13\u4e1a\u4fdd\u6d01\u7f8e\u7f1d
p388
sVContactFlag
p389
I65539
sVNickName
p390
V15962956494\uff08\u7f8e\u7f1d\uff09\u4e0d\u7c98\u9ed1
p391
sVRemarkPYQuanPin
p392
Vzhaoba
p393
sVHeadImgUrl
p394
V/cgi-bin/mmwebwx-bin/webwxgeticon?seq=641680892&username=@692a4df26feecba0d9ea0800ec15384eeb6f87edd0322b828a7b7df9769569c1&skey=@crypt_9759bc92_abe91e2482bbff2ff9d68a77ce685bc0
p395
sVSex
p396
I0
sVStarFriend
p397
I0
sVStatues
p398
I0
sa(dp399
VUserName
p400
V@e1dbb0dac0b76d0130456e043e6f1a0d8406f4862230b9b08a457446c4343023
p401
sVCity
p402
V\u6d66\u4e1c\u65b0\u533a
p403
sVDisplayName
p404
g47
sVUniFriend
p405
I0
sVMemberList
p406
(lp407
sVPYQuanPin
p408
Vfenglingdingchaozhuangshisheji
p409
sVRemarkPYInitial
p410
VFLCWDC
p411
sVUin
p412
I0
sVAppAccountFlag
p413
I0
sVVerifyFlag
p414
I0
sVProvince
p415
V\u4e0a\u6d77
p416
sVKeyWord
p417
g47
sVRemarkName
p418
V\u98ce\u94c3\uff0c\u8d22\u52a1\u9f0e\u8d85
p419
sVPYInitial
p420
VFLDCZSSJ
p421
sVChatRoomId
p422
I0
sVIsOwner
p423
I0
sVHideInputBarFlag
p424
I0
sVEncryChatRoomId
p425
g47
sVAttrStatus
p426
I69669
sVSnsFlag
p427
I49
sVMemberCount
p428
I0
sVOwnerUin
p429
I0
sVAlias
p430
g47
sVSignature
p431
V\u6b23\u8d4f\u81ea\u6211!
p432
sVContactFlag
p433
I65795
sVNickName
p434
V\u98ce\u94c3-\u9f0e\u8d85\u88c5\u9970\u8bbe\u8ba1
p435
sVRemarkPYQuanPin
p436
Vfenglingcaiwudingchao
p437
sVHeadImgUrl
p438
V/cgi-bin/mmwebwx-bin/webwxgeticon?seq=641683348&username=@e1dbb0dac0b76d0130456e043e6f1a0d8406f4862230b9b08a457446c4343023&skey=@crypt_9759bc92_abe91e2482bbff2ff9d68a77ce685bc0
p439
sVSex
p440
I2
sVStarFriend
p441
I0
sVStatues
p442
I0
sa(dp443
VUserName
p444
V@11ab0dba252e1921b089e9551bea257fb9581875cb738eabea0df960566091b7
p445
sVCity
p446
V\u82cf\u5dde
p447
sVDisplayName
p448
g47
sVUniFriend
p449
I0
sVMemberList
p450
(lp451
sVPYQuanPin
p452
Vwendao
p453
sVRemarkPYInitial
p454
VLXX
p455
sVUin
p456
I0
sVAppAccountFlag
p457
I0
sVVerifyFlag
p458
I0
sVProvince
p459
V\u6c5f\u82cf
p460
sVKeyWord
p461
g47
sVRemarkName
p462
V\u5218\u6653\u946b
p463
sVPYInitial
p464
VWD
p465
sVChatRoomId
p466
I0
sVIsOwner
p467
I0
sVHideInputBarFlag
p468
I0
sVEncryChatRoomId
p469
g47
sVAttrStatus
p470
I102437
sVSnsFlag
p471
I17
sVMemberCount
p472
I0
sVOwnerUin
p473
I0
sVAlias
p474
g47
sVSignature
p475
V\u4ece\u5934\u518d\u6765
p476
sVContactFlag
p477
I3
sVNickName
p478
V\u6587\u5200
p479
sVRemarkPYQuanPin
p480
Vliuxiaoxin
p481
sVHeadImgUrl
p482
V/cgi-bin/mmwebwx-bin/webwxgeticon?seq=641683562&username=@11ab0dba252e1921b089e9551bea257fb9581875cb738eabea0df960566091b7&skey=@crypt_9759bc92_abe91e2482bbff2ff9d68a77ce685bc0
p483
sVSex
p484
I1
sVStarFriend
p485
I0
sVStatues
p486
I0
sasS'chatroomList'
p487
(lp488
(dp489
VUserName
p490
V@@473497a99d52466f34ac28ffa0ef96252906838a08328b7be85c19d159d5a5d7
p491
sVCity
p492
g47
sVDisplayName
p493
g47
sVUniFriend
p494
I0
sS'self'
p495
(dp496
g36
g31
sg38
g39
sg40
g39
sg41
I0
sg65
I0
sg42
(lp497
sg44
g47
sg46
g47
sg74
I556236533
sg49
I0
sg50
I0
sg51
g39
sg52
g39
sg53
g47
sg54
g47
sg57
I0
sg58
I0
sg59
I1
sg60
g39
sg61
I0
sg63
I1
sg64
I0
sg62
I0
sg66
g39
sg67
g47
sg68
I0
sg69
V\u5c0f\u5c0f\u8303
p498
sg71
g47
sg72
V/cgi-bin/mmwebwx-bin/webwxgeticon?seq=139352846&username=@ebde54f1b329f68b1f5edab2d1a3c3491f26eaef391771078265b5f33e5531d3&skey=@crypt_9759bc92_abe91e2482bbff2ff9d68a77ce685bc0
p499
sg48
I0
sg75
I0
sg76
I0
ssVMemberList
p500
(lp501
sVPYQuanPin
p502
Vhaha
p503
sVRemarkPYInitial
p504
g47
sVSex
p505
I0
sVAppAccountFlag
p506
I0
sVVerifyFlag
p507
I0
sVProvince
p508
g47
sVKeyWord
p509
g47
sVRemarkName
p510
g47
sVPYInitial
p511
VHH
p512
sVIsOwner
p513
I1
sVChatRoomId
p514
I0
sVHideInputBarFlag
p515
I0
sVEncryChatRoomId
p516
g47
sVAttrStatus
p517
I0
sVSnsFlag
p518
I0
sVMemberCount
p519
I3
sVOwnerUin
p520
I0
sVAlias
p521
g47
sVSignature
p522
g47
sVContactFlag
p523
I3
sVNickName
p524
V\u54c8\u54c8
p525
sVRemarkPYQuanPin
p526
g47
sVHeadImgUrl
p527
V/cgi-bin/mmwebwx-bin/webwxgetheadimg?seq=641683384&username=@@473497a99d52466f34ac28ffa0ef96252906838a08328b7be85c19d159d5a5d7&skey=@crypt_9759bc92_abe91e2482bbff2ff9d68a77ce685bc0
p528
sVUin
p529
I0
sVStarFriend
p530
I0
sVStatues
p531
I1
sS'isAdmin'
p532
NsasS'nickName'
p533
g498
sS'mpList'
p534
(lp535
(dp536
VUserName
p537
V@e6335cc8b5f56cc984a6b23ddfb31854
p538
sVCity
p539
V\u6df1\u5733
p540
sVDisplayName
p541
g47
sVUniFriend
p542
I0
sVMemberList
p543
(lp544
sVPYQuanPin
p545
Vtengxunyouhuanquanzhongxin
p546
sVRemarkPYInitial
p547
g47
sVUin
p548
I0
sVAppAccountFlag
p549
I0
sVVerifyFlag
p550
I24
sVProvince
p551
V\u5e7f\u4e1c
p552
sVKeyWord
p553
Vgh_
p554
sVRemarkName
p555
g47
sVPYInitial
p556
VTXYHAQZX
p557
sVChatRoomId
p558
I0
sVIsOwner
p559
I0
sVHideInputBarFlag
p560
I0
sVEncryChatRoomId
p561
g47
sVAttrStatus
p562
I0
sVSnsFlag
p563
I0
sVMemberCount
p564
I0
sVOwnerUin
p565
I0
sVAlias
p566
g47
sVSignature
p567
V\u817e\u8baf\u6e38\u620f\u5b89\u5168\u4e2d\u5fc3\u5b98\u65b9\u5fae\u4fe1\u670d\u52a1\u53f7
p568
sVContactFlag
p569
I3
sVNickName
p570
V\u817e\u8baf\u6e38\u620f\u5b89\u5168\u4e2d\u5fc3
p571
sVRemarkPYQuanPin
p572
g47
sVHeadImgUrl
p573
V/cgi-bin/mmwebwx-bin/webwxgeticon?seq=641680903&username=@e6335cc8b5f56cc984a6b23ddfb31854&skey=@crypt_9759bc92_abe91e2482bbff2ff9d68a77ce685bc0
p574
sVSex
p575
I0
sVStarFriend
p576
I0
sVStatues
p577
I0
sa(dp578
VUserName
p579
V@fa29c9d5ff5ae90a1a3c174e72aa790a
p580
sVCity
p581
V\u6df1\u5733
p582
sVDisplayName
p583
g47
sVUniFriend
p584
I0
sVMemberList
p585
(lp586
sVPYQuanPin
p587
Vtengxunchongzhi
p588
sVRemarkPYInitial
p589
g47
sVUin
p590
I0
sVAppAccountFlag
p591
I0
sVVerifyFlag
p592
I24
sVProvince
p593
V\u5e7f\u4e1c
p594
sVKeyWord
p595
Vgh_
p596
sVRemarkName
p597
g47
sVPYInitial
p598
VTXCZ
p599
sVChatRoomId
p600
I0
sVIsOwner
p601
I0
sVHideInputBarFlag
p602
I0
sVEncryChatRoomId
p603
g47
sVAttrStatus
p604
I0
sVSnsFlag
p605
I0
sVMemberCount
p606
I0
sVOwnerUin
p607
I0
sVAlias
p608
g47
sVSignature
p609
V\u5145\u503cQ\u5e01/\u5305\u6708\u670d\u52a1\u5f00\u901a/\u6e38\u620f\u70b9\u5238\u5145\u503c\uff1a\u652f\u6301\u8d22\u4ed8\u901a\u3001\u94f6\u884c\u5361\u5feb\u6377\u652f\u4ed8\u3001QQ\u5361\u3001\u624b\u673a\u5145\u503c\u5361\u3001\u5fae\u4fe1\u652f\u4ed8\u7b49\u591a\u4e2a\u6e20\u9053\uff0c\u968f\u65f6\u968f\u5730\u6ee1\u8db3\u60a8\u7684\u5145\u503c\u9700\u6c42\u3002
p610
sVContactFlag
p611
I3
sVNickName
p612
V\u817e\u8baf\u5145\u503c
p613
sVRemarkPYQuanPin
p614
g47
sVHeadImgUrl
p615
V/cgi-bin/mmwebwx-bin/webwxgeticon?seq=641682999&username=@fa29c9d5ff5ae90a1a3c174e72aa790a&skey=@crypt_9759bc92_abe91e2482bbff2ff9d68a77ce685bc0
p616
sVSex
p617
I0
sVStarFriend
p618
I0
sVStatues
p619
I0
sassS'loginInfo'
p620
(dp621
S'SyncKey'
p622
(dp623
VCount
p624
I4
sVList
p625
(lp626
(dp627
VVal
p628
I641683585
sVKey
p629
I1
sa(dp630
VVal
p631
I641683697
sVKey
p632
I2
sa(dp633
VVal
p634
I641683673
sVKey
p635
I3
sa(dp636
VVal
p637
I1501116661
sVKey
p638
I1000
sassS'syncUrl'
p639
S'https://webpush.wx2.qq.com/cgi-bin/mmwebwx-bin'
p640
sS'skey'
p641
V@crypt_9759bc92_abe91e2482bbff2ff9d68a77ce685bc0
p642
sS'wxuin'
p643
V556236533
p644
sS'synckey'
p645
S'1_641683585|2_641683697|3_641683673|1000_1501116661'
p646
sS'url'
p647
Vhttps://wx2.qq.com/cgi-bin/mmwebwx-bin
p648
sS'pass_ticket'
p649
VruV5lpkM7ms7mJgjEnlsS7hAd4INEf7wyVRZHkfFAfKqLcU3qhona9KDMYQGCX0Z
p650
sS'wxsid'
p651
V4XsI48CRL7S8xpj+
p652
sS'InviteStartCount'
p653
I40
sS'User'
p654
g35
sS'fileUrl'
p655
S'https://file.wx2.qq.com/cgi-bin/mmwebwx-bin'
p656
sS'BaseRequest'
p657
(dp658
g74
g644
sS'Skey'
p659
g642
sS'DeviceID'
p660
g650
sS'Sid'
p661
g652
ssS'deviceid'
p662
S'e588466825764909'
p663
ss.